(dp1
S'output'
p2
S"<type 'exceptions.RuntimeError'> No table selected"
p3
sS'layer'
p4
S'/home/ramarohit/web2py/applications/test/controllers/default.py'
p5
sS'code'
p6
S'# -*- coding: utf-8 -*-\n# this file is released under public domain and you can use without limitations\n\n#########################################################################\n## This is a sample controller\n## - index is the default action of any application\n## - user is required for authentication and authorization\n## - download is for downloading files uploaded in the db (does streaming)\n#########################################################################\n@auth.requires_login()\ndef index():\n    """\n    example action using the internationalization operator T and flash\n    rendered by views/default/index.html or views/generic.html\n\n    if you need a simple wiki simply replace the two lines below with:\n    return auth.wiki()\n    """\n    response.flash = T("Hello")\n    return dict(message=T(\'Welcome to hostel management portal!\'))\n\ndef electrical():\n    db.electrical.status.writable=False\n    form=SQLFORM(db.electrical)\n    return locals()\n\ndef water():\n    db.water.status.writable=False\n    form=SQLFORM(db.water)\n    return locals()\ndef washingmachine():\n    db.washingmachine.status.writable=False\n    form=SQLFORM(db.washingmachine)\n    return locals()\ndef other():\n    db.other.status.writable=False\n    form=SQLFORM(db.other)\n    return locals()\n\ndef problem():\n    return locals()\n\ndef options_widget(field,value,**kwargs):\n    """ Use web2py\'s intelligence to set up the right HTML for the select field\n     the widgets knows about the database model """\n    w = SQLFORM.widgets.options.widget\n    xml = w(field,value,**kwargs)\n    return xml\n\ndef options_widget(field,value,**kwargs):\n    return SQLFORM.widgets.options.widget(field,value,**kwargs)\n\ndef editable_grid():\n    #process submitted form\n    if len(request.post_vars) > 0:\n        for key, value in request.post_vars.iteritems():   \n            (field_name,sep,row_id) = key.partition(\'_row_\') #name looks like home_state_row_99\n            if row_id:\n                db().update(**{field_name:value})\n    db.electrical.status.represent = lambda value,row:  options_widget(db.electrical.status,value,\n                     **{\'_name\':\'status_row_%s\' % row.id})\n    grid = SQLFORM.grid(db.electrical,create=False,details=False,editable=False,selectable= lambda ids : redirect(URL(\'default\',\'editable_grid\',vars=request._get_vars)))\n    grid.elements(_type=\'checkbox\',_name=\'records\',replace=None)\n    return dict(grid=grid)\n\ndef user():\n    """\n    exposes:\n    http://..../[app]/default/user/login\n    http://..../[app]/default/user/logout\n    http://..../[app]/default/user/register\n    http://..../[app]/default/user/profile\n    http://..../[app]/default/user/retrieve_password\n    http://..../[app]/default/user/change_password\n    http://..../[app]/default/user/bulk_register\n    use @auth.requires_login()\n        @auth.requires_membership(\'group name\')\n        @auth.requires_permission(\'read\',\'table name\',record_id)\n    to decorate functions that need access control\n    also notice there is http://..../[app]/appadmin/manage/auth to allow administrator to manage users\n    """\n    return dict(form=auth())\n\n\n@cache.action()\ndef download():\n    """\n    allows downloading of uploaded files\n    http://..../[app]/default/download/[filename]\n    """\n    return response.download(request, db)\n\n\ndef call():\n    """\n    exposes services. for example:\n    http://..../[app]/default/call/jsonrpc\n    decorate with @services.jsonrpc the functions to expose\n    supports xml, json, xmlrpc, jsonrpc, amfrpc, rss, csv\n    """\n    return service()\n\nresponse._vars=response._caller(editable_grid)\n'
p7
sS'snapshot'
p8
(dp9
sS'traceback'
p10
S'Traceback (most recent call last):\n  File "/home/ramarohit/web2py/gluon/restricted.py", line 227, in restricted\n    exec ccode in environment\n  File "/home/ramarohit/web2py/applications/test/controllers/default.py", line 103, in <module>\n  File "/home/ramarohit/web2py/gluon/globals.py", line 412, in <lambda>\n    self._caller = lambda f: f()\n  File "/home/ramarohit/web2py/applications/test/controllers/default.py", line 59, in editable_grid\n    db().update(**{field_name:value})\n  File "/home/ramarohit/web2py/gluon/packages/dal/pydal/objects.py", line 2051, in update\n    tablename = db._adapter.get_table(self.query)\n  File "/home/ramarohit/web2py/gluon/packages/dal/pydal/adapters/base.py", line 1061, in get_table\n    raise RuntimeError("No table selected")\nRuntimeError: No table selected\n'
p11
s.